target datalayout = "e-m:e-p270:32:32-p271:32:32-p272:64:64-i64:64-i128:128-f80:128-n8:16:32:64-S128"
target triple = "x86_64-pc-linux-gnu"

%struct.H5VL_loc_params_t = type { i32, i32, %union.anon }
%union.anon = type { %struct.H5VL_loc_by_idx }
%struct.H5VL_loc_by_idx = type { ptr, i32, i32, i64, i64 }
%struct.H5VL_link_specific_args_t = type { i32, %union.anon.7 }
%union.anon.7 = type { %struct.H5VL_link_iterate_args_t }
%struct.H5VL_link_iterate_args_t = type { i8, i32, i32, ptr, ptr, ptr }

@H5_libterm_g = external global i8, align 1
@.str = private unnamed_addr constant [97 x i8] c"generated/home/dtcxzyw/WorkSpace/Projects/compilers/llvm-opt-benchmark/bench/hdf5/hdf5/src/H5L.c\00", align 1
@H5L_init_g = external global i8, align 1
@H5E_CANTSET_g = external global i64, align 8
@H5E_LINK_g = external global i64, align 8
@H5P_LST_DATASET_XFER_ID_g = external global i64, align 8
@H5E_CANTDELETE_g = external global i64, align 8
@.str.98 = private unnamed_addr constant [34 x i8] c"can't set object access arguments\00", align 1
@__func__.H5L__delete_api_common = private unnamed_addr constant [23 x i8] c"H5L__delete_api_common\00", align 1
@.str.106 = private unnamed_addr constant [22 x i8] c"unable to delete link\00", align 1

; Function Attrs: nounwind uwtable
define internal i32 @H5L__delete_api_common(i64 noundef %0, ptr noundef %1, i64 noundef %2, ptr noundef %3, ptr noundef %4) #0 {
  %6 = alloca i64, align 8
  %7 = alloca ptr, align 8
  %8 = alloca i64, align 8
  %9 = alloca ptr, align 8
  %10 = alloca ptr, align 8
  %11 = alloca ptr, align 8
  %12 = alloca ptr, align 8
  %13 = alloca %struct.H5VL_link_specific_args_t, align 8
  %14 = alloca %struct.H5VL_loc_params_t, align 8
  %15 = alloca i32, align 4
  %16 = alloca i8, align 1
  store i64 %0, ptr %6, align 8, !tbaa !3
  store ptr %1, ptr %7, align 8, !tbaa !7
  store i64 %2, ptr %8, align 8, !tbaa !3
  store ptr %3, ptr %9, align 8, !tbaa !22
  store ptr %4, ptr %10, align 8, !tbaa !23
  call void @llvm.lifetime.start.p0(i64 8, ptr %11) #8
  store ptr null, ptr %11, align 8, !tbaa !10
  call void @llvm.lifetime.start.p0(i64 8, ptr %12) #8
  %17 = load ptr, ptr %10, align 8, !tbaa !23
  %18 = icmp ne ptr %17, null
  br i1 %18, label %19, label %21

19:                                               ; preds = %5
  %20 = load ptr, ptr %10, align 8, !tbaa !23
  br label %22

21:                                               ; preds = %5
  br label %22

22:                                               ; preds = %21, %19
  %23 = phi ptr [ %20, %19 ], [ %11, %21 ]
  store ptr %23, ptr %12, align 8, !tbaa !23
  call void @llvm.lifetime.start.p0(i64 48, ptr %13) #8
  call void @llvm.lifetime.start.p0(i64 40, ptr %14) #8
  call void @llvm.lifetime.start.p0(i64 4, ptr %15) #8
  store i32 0, ptr %15, align 4, !tbaa !12
  call void @llvm.lifetime.start.p0(i64 1, ptr %16) #8
  store i8 0, ptr %16, align 1, !tbaa !14
  %24 = load i8, ptr @H5L_init_g, align 1, !tbaa !14, !range !16, !noundef !17
  %25 = trunc i8 %24 to i1
  br i1 %25, label %30, label %26

26:                                               ; preds = %22
  %27 = load i8, ptr @H5_libterm_g, align 1, !tbaa !14, !range !16, !noundef !17
  %28 = trunc i8 %27 to i1
  %29 = xor i1 %28, true
  br label %30

30:                                               ; preds = %26, %22
  %31 = phi i1 [ true, %22 ], [ %29, %26 ]
  %32 = xor i1 %31, true
  %33 = xor i1 %32, true
  %34 = zext i1 %33 to i32
  %35 = sext i32 %34 to i64
  %36 = call i64 @llvm.expect.i64(i64 %35, i64 1)
  %37 = icmp ne i64 %36, 0
  br i1 %37, label %38, label %93

38:                                               ; preds = %30
  %39 = load i64, ptr %6, align 8, !tbaa !3
  %40 = load ptr, ptr %7, align 8, !tbaa !7
  %41 = load i64, ptr %8, align 8, !tbaa !3
  %42 = load ptr, ptr %12, align 8, !tbaa !23
  %43 = call i32 @H5VL_setup_name_args(i64 noundef %39, ptr noundef %40, i1 noundef zeroext true, i64 noundef %41, ptr noundef %42, ptr noundef %14)
  %44 = icmp slt i32 %43, 0
  br i1 %44, label %45, label %64

45:                                               ; preds = %38
  br label %46

46:                                               ; preds = %45
  br label %47

47:                                               ; preds = %46
  br label %48

48:                                               ; preds = %47
  %49 = load i64, ptr @H5E_LINK_g, align 8, !tbaa !3
  %50 = load i64, ptr @H5E_CANTSET_g, align 8, !tbaa !3
  %51 = call i32 (ptr, ptr, i32, i64, i64, ptr, ...) @H5E_printf_stack(ptr noundef @.str, ptr noundef @__func__.H5L__delete_api_common, i32 noundef 787, i64 noundef %49, i64 noundef %50, ptr noundef @.str.98)
  br label %52

52:                                               ; preds = %48
  br label %53

53:                                               ; preds = %52
  store i8 1, ptr %16, align 1, !tbaa !14
  %54 = load i8, ptr %16, align 1, !tbaa !14, !range !16, !noundef !17
  %55 = trunc i8 %54 to i1
  %56 = zext i1 %55 to i8
  store i8 %56, ptr %16, align 1, !tbaa !14
  br label %57

57:                                               ; preds = %53
  br label %58

58:                                               ; preds = %57
  br label %59

59:                                               ; preds = %58
  store i32 -1, ptr %15, align 4, !tbaa !12
  br label %92

60:                                               ; No predecessors!
  br label %61

61:                                               ; preds = %60
  br label %62

62:                                               ; preds = %61
  br label %63

63:                                               ; preds = %62
  br label %64

64:                                               ; preds = %63, %38
  %65 = getelementptr inbounds nuw %struct.H5VL_link_specific_args_t, ptr %13, i32 0, i32 0
  store i32 0, ptr %65, align 8, !tbaa !31
  %66 = load ptr, ptr %12, align 8, !tbaa !23
  %67 = load ptr, ptr %66, align 8, !tbaa !10
  %68 = load i64, ptr @H5P_LST_DATASET_XFER_ID_g, align 8, !tbaa !3
  %69 = load ptr, ptr %9, align 8, !tbaa !22
  %70 = call i32 @H5VL_link_specific(ptr noundef %67, ptr noundef %14, ptr noundef %13, i64 noundef %68, ptr noundef %69)
  %71 = icmp slt i32 %70, 0
  br i1 %71, label %72, label %91

72:                                               ; preds = %64
  br label %73

73:                                               ; preds = %72
  br label %74

74:                                               ; preds = %73
  br label %75

75:                                               ; preds = %74
  %76 = load i64, ptr @H5E_LINK_g, align 8, !tbaa !3
  %77 = load i64, ptr @H5E_CANTDELETE_g, align 8, !tbaa !3
  %78 = call i32 (ptr, ptr, i32, i64, i64, ptr, ...) @H5E_printf_stack(ptr noundef @.str, ptr noundef @__func__.H5L__delete_api_common, i32 noundef 794, i64 noundef %76, i64 noundef %77, ptr noundef @.str.106)
  br label %79

79:                                               ; preds = %75
  br label %80

80:                                               ; preds = %79
  store i8 1, ptr %16, align 1, !tbaa !14
  %81 = load i8, ptr %16, align 1, !tbaa !14, !range !16, !noundef !17
  %82 = trunc i8 %81 to i1
  %83 = zext i1 %82 to i8
  store i8 %83, ptr %16, align 1, !tbaa !14
  br label %84

84:                                               ; preds = %80
  br label %85

85:                                               ; preds = %84
  br label %86

86:                                               ; preds = %85
  store i32 -1, ptr %15, align 4, !tbaa !12
  br label %92

87:                                               ; No predecessors!
  br label %88

88:                                               ; preds = %87
  br label %89

89:                                               ; preds = %88
  br label %90

90:                                               ; preds = %89
  br label %91

91:                                               ; preds = %90, %64
  br label %92

92:                                               ; preds = %91, %86, %59
  br label %93

93:                                               ; preds = %92, %30
  %94 = load i32, ptr %15, align 4, !tbaa !12
  call void @llvm.lifetime.end.p0(i64 1, ptr %16) #8
  call void @llvm.lifetime.end.p0(i64 4, ptr %15) #8
  call void @llvm.lifetime.end.p0(i64 40, ptr %14) #8
  call void @llvm.lifetime.end.p0(i64 48, ptr %13) #8
  call void @llvm.lifetime.end.p0(i64 8, ptr %12) #8
  call void @llvm.lifetime.end.p0(i64 8, ptr %11) #8
  ret i32 %94
}