; Function Attrs: nounwind uwtable
define internal fastcc range(i32 -1, 1) i32 @H5L__delete_api_common(i64 noundef %0, ptr noundef %1, i64 noundef %2, ptr noundef %3, ptr noundef %4) unnamed_addr #0 {
  %6 = alloca ptr, align 8
  %7 = alloca %struct.H5VL_link_specific_args_t, align 8
  %8 = alloca %struct.H5VL_loc_params_t, align 8
  call void @llvm.lifetime.start.p0(i64 8, ptr nonnull %6) #7
  store ptr null, ptr %6, align 8, !tbaa !20
  %.not = icmp eq ptr %4, null
  %9 = select i1 %.not, ptr %6, ptr %4
  call void @llvm.lifetime.start.p0(i64 48, ptr nonnull %7) #7
  call void @llvm.lifetime.start.p0(i64 40, ptr nonnull %8) #7
  %10 = load i8, ptr @H5L_init_g, align 1, !tbaa !7, !range !9, !noundef !10
  %11 = trunc nuw i8 %10 to i1
  %12 = load i8, ptr @H5_libterm_g, align 1, !range !9
  %13 = trunc nuw i8 %12 to i1
  %14 = xor i1 %13, true
  %15 = select i1 %11, i1 true, i1 %14
  br i1 %15, label %16, label %32, !prof !11

16:                                               ; preds = %5
  %17 = call i32 @H5VL_setup_name_args(i64 noundef %0, ptr noundef %1, i1 noundef zeroext true, i64 noundef %2, ptr noundef nonnull %9, ptr noundef nonnull %8) #7
  %18 = icmp slt i32 %17, 0
  br i1 %18, label %19, label %23

19:                                               ; preds = %16
  %20 = load i64, ptr @H5E_LINK_g, align 8, !tbaa !3
  %21 = load i64, ptr @H5E_CANTSET_g, align 8, !tbaa !3
  %22 = call i32 (ptr, ptr, i32, i64, i64, ptr, ...) @H5E_printf_stack(ptr noundef nonnull @.str, ptr noundef nonnull @__func__.H5L__delete_api_common, i32 noundef 787, i64 noundef %20, i64 noundef %21, ptr noundef nonnull @.str.98) #7
  br label %32

23:                                               ; preds = %16
  store i32 0, ptr %7, align 8, !tbaa !28
  %24 = load ptr, ptr %9, align 8, !tbaa !20
  %25 = load i64, ptr @H5P_LST_DATASET_XFER_ID_g, align 8, !tbaa !3
  %26 = call i32 @H5VL_link_specific(ptr noundef %24, ptr noundef nonnull %8, ptr noundef nonnull %7, i64 noundef %25, ptr noundef %3) #7
  %27 = icmp slt i32 %26, 0
  br i1 %27, label %28, label %32

28:                                               ; preds = %23
  %29 = load i64, ptr @H5E_LINK_g, align 8, !tbaa !3
  %30 = load i64, ptr @H5E_CANTDELETE_g, align 8, !tbaa !3
  %31 = call i32 (ptr, ptr, i32, i64, i64, ptr, ...) @H5E_printf_stack(ptr noundef nonnull @.str, ptr noundef nonnull @__func__.H5L__delete_api_common, i32 noundef 794, i64 noundef %29, i64 noundef %30, ptr noundef nonnull @.str.106) #7
  br label %32

32:                                               ; preds = %19, %28, %23, %5
  %.0 = phi i32 [ -1, %19 ], [ -1, %28 ], [ 0, %23 ], [ 0, %5 ]
  call void @llvm.lifetime.end.p0(i64 40, ptr nonnull %8) #7
  call void @llvm.lifetime.end.p0(i64 48, ptr nonnull %7) #7
  call void @llvm.lifetime.end.p0(i64 8, ptr nonnull %6) #7
  ret i32 %.0
}